target datalayout = "e-m:e-p270:32:32-p271:32:32-p272:64:64-i64:64-i128:128-f80:128-n8:16:32:64-S128"
target triple = "x86_64-pc-linux-gnu"

%struct.Vec_Int_t_ = type { i32, i32, ptr }
%struct.Vec_Ptr_t_ = type { i32, i32, ptr }
%struct.Abc_Ntk_t_ = type { i32, i32, ptr, ptr, ptr, ptr, ptr, ptr, ptr, ptr, ptr, ptr, ptr, [11 x i32], i32, i32, i32, i32, ptr, i32, ptr, ptr, i32, i32, i32, double, i32, %struct.Vec_Int_t_, ptr, ptr, ptr, ptr, ptr, float, i32, ptr, ptr, ptr, ptr, ptr, ptr, ptr, ptr, ptr, ptr, ptr, ptr, ptr, ptr, ptr, ptr, ptr, ptr, ptr, ptr, ptr, ptr }

@.str.2 = private unnamed_addr constant [2 x i8] c"a\00", align 1
@.str.3 = private unnamed_addr constant [3 x i8] c"( \00", align 1
@.str.4 = private unnamed_addr constant [5 x i8] c"hint\00", align 1
@.str.5 = private unnamed_addr constant [3 x i8] c"%s\00", align 1
@.str.6 = private unnamed_addr constant [5 x i8] c" || \00", align 1
@.str.7 = private unnamed_addr constant [4 x i8] c" )\0A\00", align 1

; Function Attrs: inlinehint nounwind uwtable
define internal ptr @Abc_NtkPo(ptr noundef %0, i32 noundef %1) #3 {
  %3 = alloca ptr, align 8
  %4 = alloca i32, align 4
  store ptr %0, ptr %3, align 8, !tbaa !86
  store i32 %1, ptr %4, align 4, !tbaa !22
  %5 = load ptr, ptr %3, align 8, !tbaa !86
  %6 = getelementptr inbounds nuw %struct.Abc_Ntk_t_, ptr %5, i32 0, i32 7
  %7 = load ptr, ptr %6, align 8, !tbaa !93
  %8 = load i32, ptr %4, align 4, !tbaa !22
  %9 = call ptr @Vec_PtrEntry(ptr noundef %7, i32 noundef %8)
  ret ptr %9
}

; Function Attrs: inlinehint nounwind uwtable
define internal i32 @Vec_IntEntry(ptr noundef %0, i32 noundef %1) #3 {
  %3 = alloca ptr, align 8
  %4 = alloca i32, align 4
  store ptr %0, ptr %3, align 8, !tbaa !12
  store i32 %1, ptr %4, align 4, !tbaa !22
  %5 = load ptr, ptr %3, align 8, !tbaa !12
  %6 = getelementptr inbounds nuw %struct.Vec_Int_t_, ptr %5, i32 0, i32 2
  %7 = load ptr, ptr %6, align 8, !tbaa !13
  %8 = load i32, ptr %4, align 4, !tbaa !22
  %9 = sext i32 %8 to i64
  %10 = getelementptr inbounds i32, ptr %7, i64 %9
  %11 = load i32, ptr %10, align 4, !tbaa !22
  ret i32 %11
}

; Function Attrs: inlinehint nounwind uwtable
define internal i32 @Vec_IntSize(ptr noundef %0) #3 {
  %2 = alloca ptr, align 8
  store ptr %0, ptr %2, align 8, !tbaa !12
  %3 = load ptr, ptr %2, align 8, !tbaa !12
  %4 = getelementptr inbounds nuw %struct.Vec_Int_t_, ptr %3, i32 0, i32 1
  %5 = load i32, ptr %4, align 4, !tbaa !63
  ret i32 %5
}

; Function Attrs: inlinehint nounwind uwtable
define internal ptr @Vec_PtrEntry(ptr noundef %0, i32 noundef %1) #3 {
  %3 = alloca ptr, align 8
  %4 = alloca i32, align 4
  store ptr %0, ptr %3, align 8, !tbaa !43
  store i32 %1, ptr %4, align 4, !tbaa !22
  %5 = load ptr, ptr %3, align 8, !tbaa !43
  %6 = getelementptr inbounds nuw %struct.Vec_Ptr_t_, ptr %5, i32 0, i32 2
  %7 = load ptr, ptr %6, align 8, !tbaa !57
  %8 = load i32, ptr %4, align 4, !tbaa !22
  %9 = sext i32 %8 to i64
  %10 = getelementptr inbounds ptr, ptr %7, i64 %9
  %11 = load ptr, ptr %10, align 8, !tbaa !59
  ret ptr %11
}

; Function Attrs: inlinehint nounwind uwtable
define internal i32 @Vec_PtrSize(ptr noundef %0) #3 {
  %2 = alloca ptr, align 8
  store ptr %0, ptr %2, align 8, !tbaa !43
  %3 = load ptr, ptr %2, align 8, !tbaa !43
  %4 = getelementptr inbounds nuw %struct.Vec_Ptr_t_, ptr %3, i32 0, i32 1
  %5 = load i32, ptr %4, align 4, !tbaa !61
  ret i32 %5
}

; Function Attrs: nounwind uwtable
define void @printAllIntVectors(ptr noundef %0, ptr noundef %1, ptr noundef %2) #0 {
  %4 = alloca ptr, align 8
  %5 = alloca ptr, align 8
  %6 = alloca ptr, align 8
  %7 = alloca ptr, align 8
  %8 = alloca i32, align 4
  %9 = alloca i32, align 4
  %10 = alloca i32, align 4
  %11 = alloca ptr, align 8
  %12 = alloca ptr, align 8
  %13 = alloca ptr, align 8
  store ptr %0, ptr %4, align 8, !tbaa !43
  store ptr %1, ptr %5, align 8, !tbaa !86
  store ptr %2, ptr %6, align 8, !tbaa !88
  call void @llvm.lifetime.start.p0(i64 8, ptr %7) #9
  call void @llvm.lifetime.start.p0(i64 4, ptr %8) #9
  call void @llvm.lifetime.start.p0(i64 4, ptr %9) #9
  call void @llvm.lifetime.start.p0(i64 4, ptr %10) #9
  call void @llvm.lifetime.start.p0(i64 8, ptr %11) #9
  call void @llvm.lifetime.start.p0(i64 8, ptr %12) #9
  call void @llvm.lifetime.start.p0(i64 8, ptr %13) #9
  %14 = load ptr, ptr %6, align 8, !tbaa !88
  %15 = call noalias ptr @fopen(ptr noundef %14, ptr noundef @.str.2)
  store ptr %15, ptr %13, align 8, !tbaa !89
  store i32 0, ptr %8, align 4, !tbaa !22
  br label %16

16:                                               ; preds = %67, %3
  %17 = load i32, ptr %8, align 4, !tbaa !22
  %18 = load ptr, ptr %4, align 8, !tbaa !43
  %19 = call i32 @Vec_PtrSize(ptr noundef %18)
  %20 = icmp slt i32 %17, %19
  br i1 %20, label %21, label %25

21:                                               ; preds = %16
  %22 = load ptr, ptr %4, align 8, !tbaa !43
  %23 = load i32, ptr %8, align 4, !tbaa !22
  %24 = call ptr @Vec_PtrEntry(ptr noundef %22, i32 noundef %23)
  store ptr %24, ptr %7, align 8, !tbaa !12
  br label %25

25:                                               ; preds = %21, %16
  %26 = phi i1 [ false, %16 ], [ true, %21 ]
  br i1 %26, label %27, label %70

27:                                               ; preds = %25
  %28 = load ptr, ptr %13, align 8, !tbaa !89
  %29 = call i32 (ptr, ptr, ...) @fprintf(ptr noundef %28, ptr noundef @.str.3) #9
  store i32 0, ptr %9, align 4, !tbaa !22
  br label %30

30:                                               ; preds = %63, %27
  %31 = load i32, ptr %9, align 4, !tbaa !22
  %32 = load ptr, ptr %7, align 8, !tbaa !12
  %33 = call i32 @Vec_IntSize(ptr noundef %32)
  %34 = icmp slt i32 %31, %33
  br i1 %34, label %35, label %39

35:                                               ; preds = %30
  %36 = load ptr, ptr %7, align 8, !tbaa !12
  %37 = load i32, ptr %9, align 4, !tbaa !22
  %38 = call i32 @Vec_IntEntry(ptr noundef %36, i32 noundef %37)
  store i32 %38, ptr %10, align 4, !tbaa !22
  br label %39

39:                                               ; preds = %35, %30
  %40 = phi i1 [ false, %30 ], [ true, %35 ]
  br i1 %40, label %41, label %66

41:                                               ; preds = %39
  %42 = load ptr, ptr %5, align 8, !tbaa !86
  %43 = load i32, ptr %10, align 4, !tbaa !22
  %44 = call ptr @Abc_NtkPo(ptr noundef %42, i32 noundef %43)
  %45 = call ptr @Abc_ObjName(ptr noundef %44)
  store ptr %45, ptr %11, align 8, !tbaa !88
  %46 = load ptr, ptr %11, align 8, !tbaa !88
  %47 = call ptr @strstr(ptr noundef %46, ptr noundef @.str.4) #11
  store ptr %47, ptr %12, align 8, !tbaa !88
  %48 = load ptr, ptr %13, align 8, !tbaa !89
  %49 = load ptr, ptr %12, align 8, !tbaa !88
  %50 = call i32 (ptr, ptr, ...) @fprintf(ptr noundef %48, ptr noundef @.str.5, ptr noundef %49) #9
  %51 = load i32, ptr %9, align 4, !tbaa !22
  %52 = load ptr, ptr %7, align 8, !tbaa !12
  %53 = call i32 @Vec_IntSize(ptr noundef %52)
  %54 = sub nsw i32 %53, 1
  %55 = icmp slt i32 %51, %54
  br i1 %55, label %56, label %59

56:                                               ; preds = %41
  %57 = load ptr, ptr %13, align 8, !tbaa !89
  %58 = call i32 (ptr, ptr, ...) @fprintf(ptr noundef %57, ptr noundef @.str.6) #9
  br label %62

59:                                               ; preds = %41
  %60 = load ptr, ptr %13, align 8, !tbaa !89
  %61 = call i32 (ptr, ptr, ...) @fprintf(ptr noundef %60, ptr noundef @.str.7) #9
  br label %62

62:                                               ; preds = %59, %56
  br label %63

63:                                               ; preds = %62
  %64 = load i32, ptr %9, align 4, !tbaa !22
  %65 = add nsw i32 %64, 1
  store i32 %65, ptr %9, align 4, !tbaa !22
  br label %30, !llvm.loop !91

66:                                               ; preds = %39
  br label %67

67:                                               ; preds = %66
  %68 = load i32, ptr %8, align 4, !tbaa !22
  %69 = add nsw i32 %68, 1
  store i32 %69, ptr %8, align 4, !tbaa !22
  br label %16, !llvm.loop !92

70:                                               ; preds = %25
  %71 = load ptr, ptr %13, align 8, !tbaa !89
  %72 = call i32 @fclose(ptr noundef %71)
  call void @llvm.lifetime.end.p0(i64 8, ptr %13) #9
  call void @llvm.lifetime.end.p0(i64 8, ptr %12) #9
  call void @llvm.lifetime.end.p0(i64 8, ptr %11) #9
  call void @llvm.lifetime.end.p0(i64 4, ptr %10) #9
  call void @llvm.lifetime.end.p0(i64 4, ptr %9) #9
  call void @llvm.lifetime.end.p0(i64 4, ptr %8) #9
  call void @llvm.lifetime.end.p0(i64 8, ptr %7) #9
  ret void
}