; Function Attrs: nounwind uwtable
define void @printAllIntVectors(ptr noundef readonly captures(none) %0, ptr noundef readonly captures(none) %1, ptr noundef readonly captures(none) %2) local_unnamed_addr #5 {
  %4 = tail call noalias ptr @fopen(ptr noundef %2, ptr noundef nonnull @.str.2)
  %5 = getelementptr i8, ptr %0, i64 4
  %.val31 = load i32, ptr %5, align 4, !tbaa !28
  %6 = icmp sgt i32 %.val31, 0
  br i1 %6, label %.lr.ph33, label %.critedge

.lr.ph33:                                         ; preds = %3
  %7 = getelementptr i8, ptr %0, i64 8
  %8 = getelementptr i8, ptr %1, i64 48
  br label %9

9:                                                ; preds = %.lr.ph33, %.critedge2
  %indvars.iv35 = phi i64 [ 0, %.lr.ph33 ], [ %indvars.iv.next36, %.critedge2 ]
  %.val24 = load ptr, ptr %7, align 8, !tbaa !37
  %10 = getelementptr inbounds nuw ptr, ptr %.val24, i64 %indvars.iv35
  %11 = load ptr, ptr %10, align 8, !tbaa !38
  %12 = tail call i64 @fwrite(ptr nonnull @.str.3, i64 2, i64 1, ptr %4)
  %13 = getelementptr i8, ptr %11, i64 4
  %.val2629 = load i32, ptr %13, align 4, !tbaa !42
  %14 = icmp sgt i32 %.val2629, 0
  br i1 %14, label %.lr.ph, label %.critedge2

.lr.ph:                                           ; preds = %9
  %15 = getelementptr i8, ptr %11, i64 8
  br label %16

16:                                               ; preds = %.lr.ph, %32
  %indvars.iv = phi i64 [ 0, %.lr.ph ], [ %indvars.iv.next, %32 ]
  %.val27 = load ptr, ptr %15, align 8, !tbaa !9
  %17 = getelementptr inbounds nuw i32, ptr %.val27, i64 %indvars.iv
  %18 = load i32, ptr %17, align 4, !tbaa !50
  %.val28 = load ptr, ptr %8, align 8, !tbaa !75
  %19 = getelementptr i8, ptr %.val28, i64 8
  %.val28.val = load ptr, ptr %19, align 8, !tbaa !37
  %20 = sext i32 %18 to i64
  %21 = getelementptr inbounds ptr, ptr %.val28.val, i64 %20
  %22 = load ptr, ptr %21, align 8, !tbaa !38
  %23 = tail call ptr @Abc_ObjName(ptr noundef %22) #14
  %24 = tail call ptr @strstr(ptr noundef nonnull dereferenceable(1) %23, ptr noundef nonnull dereferenceable(1) @.str.4) #15
  %fputs = tail call i32 @fputs(ptr %24, ptr %4)
  %.val25 = load i32, ptr %13, align 4, !tbaa !42
  %25 = add nsw i32 %.val25, -1
  %26 = sext i32 %25 to i64
  %27 = icmp slt i64 %indvars.iv, %26
  br i1 %27, label %28, label %30

28:                                               ; preds = %16
  %29 = tail call i64 @fwrite(ptr nonnull @.str.6, i64 4, i64 1, ptr %4)
  br label %32

30:                                               ; preds = %16
  %31 = tail call i64 @fwrite(ptr nonnull @.str.7, i64 3, i64 1, ptr %4)
  br label %32

32:                                               ; preds = %28, %30
  %indvars.iv.next = add nuw nsw i64 %indvars.iv, 1
  %.val26 = load i32, ptr %13, align 4, !tbaa !42
  %33 = sext i32 %.val26 to i64
  %34 = icmp slt i64 %indvars.iv.next, %33
  br i1 %34, label %16, label %.critedge2, !llvm.loop !86

.critedge2:                                       ; preds = %32, %9
  %indvars.iv.next36 = add nuw nsw i64 %indvars.iv35, 1
  %.val = load i32, ptr %5, align 4, !tbaa !28
  %35 = sext i32 %.val to i64
  %36 = icmp slt i64 %indvars.iv.next36, %35
  br i1 %36, label %9, label %.critedge, !llvm.loop !87

.critedge:                                        ; preds = %.critedge2, %3
  %37 = tail call i32 @fclose(ptr noundef %4)
  ret void
}